(dp1
S'failed'
p2
(lp3
sS'source_names'
p4
(lp5
S'cloudify/tests/test_local_workflows.py'
p6
asS'ids'
p7
(dp8
I1
(S'/home/dan/dev/cloudify/cloudify-plugins-common/cloudify/tests/test_local_workflows.py'
S'cloudify.tests.test_local_workflows'
p9
S'FileStorageTest.test_persistency'
tp10
sI2
(S'/home/dan/dev/cloudify/cloudify-plugins-common/cloudify/tests/test_local_workflows.py'
g9
S'FileStorageTest.test_storage_dir'
tp11
sI3
(S'/home/dan/dev/cloudify/cloudify-plugins-common/cloudify/tests/test_local_workflows.py'
g9
S'LocalWorkflowEnvironmentTest.test_inputs'
tp12
sI4
(S'/home/dan/dev/cloudify/cloudify-plugins-common/cloudify/tests/test_local_workflows.py'
g9
S'LocalWorkflowEnvironmentTest.test_local_task_thread_pool_size'
tp13
sI5
(S'/home/dan/dev/cloudify/cloudify-plugins-common/cloudify/tests/test_local_workflows.py'
g9
S'LocalWorkflowEnvironmentTest.test_no_operation_attribute'
tp14
sI6
(S'/home/dan/dev/cloudify/cloudify-plugins-common/cloudify/tests/test_local_workflows.py'
g9
S'LocalWorkflowEnvironmentTest.test_no_operation_module'
tp15
sI7
(S'/home/dan/dev/cloudify/cloudify-plugins-common/cloudify/tests/test_local_workflows.py'
g9
S'LocalWorkflowEnvironmentTest.test_no_source_operation_attribute'
tp16
sI8
(S'/home/dan/dev/cloudify/cloudify-plugins-common/cloudify/tests/test_local_workflows.py'
g9
S'LocalWorkflowEnvironmentTest.test_no_source_operation_module'
tp17
sI9
(S'/home/dan/dev/cloudify/cloudify-plugins-common/cloudify/tests/test_local_workflows.py'
g9
S'LocalWorkflowEnvironmentTest.test_no_target_operation_attribute'
tp18
sI10
(S'/home/dan/dev/cloudify/cloudify-plugins-common/cloudify/tests/test_local_workflows.py'
g9
S'LocalWorkflowEnvironmentTest.test_no_target_operation_module'
tp19
sI11
(S'/home/dan/dev/cloudify/cloudify-plugins-common/cloudify/tests/test_local_workflows.py'
g9
S'LocalWorkflowEnvironmentTest.test_no_workflow'
tp20
sI12
(S'/home/dan/dev/cloudify/cloudify-plugins-common/cloudify/tests/test_local_workflows.py'
g9
S'LocalWorkflowEnvironmentTest.test_no_workflow_attribute'
tp21
sI13
(S'/home/dan/dev/cloudify/cloudify-plugins-common/cloudify/tests/test_local_workflows.py'
g9
S'LocalWorkflowEnvironmentTest.test_no_workflow_module'
tp22
sI14
(S'/home/dan/dev/cloudify/cloudify-plugins-common/cloudify/tests/test_local_workflows.py'
g9
S'LocalWorkflowEnvironmentTest.test_outputs'
tp23
sI15
(S'/home/dan/dev/cloudify/cloudify-plugins-common/cloudify/tests/test_local_workflows.py'
g9
S'LocalWorkflowEnvironmentTest.test_retry_configuration'
tp24
sI16
(S'/home/dan/dev/cloudify/cloudify-plugins-common/cloudify/tests/test_local_workflows.py'
g9
S'LocalWorkflowEnvironmentTest.test_workflow_parameters'
tp25
sI17
(S'/home/dan/dev/cloudify/cloudify-plugins-common/cloudify/tests/test_local_workflows.py'
g9
S'LocalWorkflowTestFileStorage.test_ctx_host_ip'
tp26
sI18
(S'/home/dan/dev/cloudify/cloudify-plugins-common/cloudify/tests/test_local_workflows.py'
g9
S'LocalWorkflowTestFileStorage.test_get_node'
tp27
sI19
(S'/home/dan/dev/cloudify/cloudify-plugins-common/cloudify/tests/test_local_workflows.py'
g9
S'LocalWorkflowTestFileStorage.test_get_node_missing'
tp28
sI20
(S'/home/dan/dev/cloudify/cloudify-plugins-common/cloudify/tests/test_local_workflows.py'
g9
S'LocalWorkflowTestFileStorage.test_node_instance_version_conflict'
tp29
sI21
(S'/home/dan/dev/cloudify/cloudify-plugins-common/cloudify/tests/test_local_workflows.py'
g9
S'LocalWorkflowTestFileStorage.test_operation_bootstrap_context'
tp30
sI22
(S'/home/dan/dev/cloudify/cloudify-plugins-common/cloudify/tests/test_local_workflows.py'
g9
S'LocalWorkflowTestFileStorage.test_operation_capabilities'
tp31
sI23
(S'/home/dan/dev/cloudify/cloudify-plugins-common/cloudify/tests/test_local_workflows.py'
g9
S'LocalWorkflowTestFileStorage.test_operation_ctx_properties_and_methods'
tp32
sI24
(S'/home/dan/dev/cloudify/cloudify-plugins-common/cloudify/tests/test_local_workflows.py'
g9
S'LocalWorkflowTestFileStorage.test_operation_related_properties'
tp33
sI25
(S'/home/dan/dev/cloudify/cloudify-plugins-common/cloudify/tests/test_local_workflows.py'
g9
S'LocalWorkflowTestFileStorage.test_operation_related_runtime_properties'
tp34
sI26
(S'/home/dan/dev/cloudify/cloudify-plugins-common/cloudify/tests/test_local_workflows.py'
g9
S'LocalWorkflowTestFileStorage.test_operation_runtime_properties'
tp35
sI27
(S'/home/dan/dev/cloudify/cloudify-plugins-common/cloudify/tests/test_local_workflows.py'
g9
S'LocalWorkflowTestFileStorage.test_task_config_decorator'
tp36
sI28
(S'/home/dan/dev/cloudify/cloudify-plugins-common/cloudify/tests/test_local_workflows.py'
g9
S'LocalWorkflowTestFileStorage.test_task_event_filtering'
tp37
sI29
(S'/home/dan/dev/cloudify/cloudify-plugins-common/cloudify/tests/test_local_workflows.py'
g9
S'LocalWorkflowTestFileStorage.test_update_execution_status'
tp38
sI30
(S'/home/dan/dev/cloudify/cloudify-plugins-common/cloudify/tests/test_local_workflows.py'
g9
S'LocalWorkflowTestFileStorage.test_workflow_and_operation_logging_and_events'
tp39
sI31
(S'/home/dan/dev/cloudify/cloudify-plugins-common/cloudify/tests/test_local_workflows.py'
g9
S'LocalWorkflowTestFileStorage.test_workflow_blueprint_model'
tp40
sI32
(S'/home/dan/dev/cloudify/cloudify-plugins-common/cloudify/tests/test_local_workflows.py'
g9
S'LocalWorkflowTestFileStorage.test_workflow_bootstrap_context'
tp41
sI33
(S'/home/dan/dev/cloudify/cloudify-plugins-common/cloudify/tests/test_local_workflows.py'
g9
S'LocalWorkflowTestFileStorage.test_workflow_ctx_properties'
tp42
sI34
(S'/home/dan/dev/cloudify/cloudify-plugins-common/cloudify/tests/test_local_workflows.py'
g9
S'LocalWorkflowTestFileStorage.test_workflow_graph_mode'
tp43
sI35
(S'/home/dan/dev/cloudify/cloudify-plugins-common/cloudify/tests/test_local_workflows.py'
g9
S'LocalWorkflowTestFileStorage.test_workflow_set_get_node_instance_state'
tp44
sI36
(S'/home/dan/dev/cloudify/cloudify-plugins-common/cloudify/tests/test_local_workflows.py'
g9
S'LocalWorkflowTestInMemoryStorage.test_ctx_host_ip'
tp45
sI37
(S'/home/dan/dev/cloudify/cloudify-plugins-common/cloudify/tests/test_local_workflows.py'
g9
S'LocalWorkflowTestInMemoryStorage.test_get_node'
tp46
sI38
(S'/home/dan/dev/cloudify/cloudify-plugins-common/cloudify/tests/test_local_workflows.py'
g9
S'LocalWorkflowTestInMemoryStorage.test_get_node_missing'
tp47
sI39
(S'/home/dan/dev/cloudify/cloudify-plugins-common/cloudify/tests/test_local_workflows.py'
g9
S'LocalWorkflowTestInMemoryStorage.test_node_instance_version_conflict'
tp48
sI40
(S'/home/dan/dev/cloudify/cloudify-plugins-common/cloudify/tests/test_local_workflows.py'
g9
S'LocalWorkflowTestInMemoryStorage.test_operation_bootstrap_context'
tp49
sI41
(S'/home/dan/dev/cloudify/cloudify-plugins-common/cloudify/tests/test_local_workflows.py'
g9
S'LocalWorkflowTestInMemoryStorage.test_operation_capabilities'
tp50
sI42
(S'/home/dan/dev/cloudify/cloudify-plugins-common/cloudify/tests/test_local_workflows.py'
g9
S'LocalWorkflowTestInMemoryStorage.test_operation_ctx_properties_and_methods'
tp51
sI43
(S'/home/dan/dev/cloudify/cloudify-plugins-common/cloudify/tests/test_local_workflows.py'
g9
S'LocalWorkflowTestInMemoryStorage.test_operation_related_properties'
tp52
sI44
(S'/home/dan/dev/cloudify/cloudify-plugins-common/cloudify/tests/test_local_workflows.py'
g9
S'LocalWorkflowTestInMemoryStorage.test_operation_related_runtime_properties'
tp53
sI45
(S'/home/dan/dev/cloudify/cloudify-plugins-common/cloudify/tests/test_local_workflows.py'
g9
S'LocalWorkflowTestInMemoryStorage.test_operation_runtime_properties'
tp54
sI46
(S'/home/dan/dev/cloudify/cloudify-plugins-common/cloudify/tests/test_local_workflows.py'
g9
S'LocalWorkflowTestInMemoryStorage.test_task_config_decorator'
tp55
sI47
(S'/home/dan/dev/cloudify/cloudify-plugins-common/cloudify/tests/test_local_workflows.py'
g9
S'LocalWorkflowTestInMemoryStorage.test_task_event_filtering'
tp56
sI48
(S'/home/dan/dev/cloudify/cloudify-plugins-common/cloudify/tests/test_local_workflows.py'
g9
S'LocalWorkflowTestInMemoryStorage.test_update_execution_status'
tp57
sI49
(S'/home/dan/dev/cloudify/cloudify-plugins-common/cloudify/tests/test_local_workflows.py'
g9
S'LocalWorkflowTestInMemoryStorage.test_workflow_and_operation_logging_and_events'
tp58
sI50
(S'/home/dan/dev/cloudify/cloudify-plugins-common/cloudify/tests/test_local_workflows.py'
g9
S'LocalWorkflowTestInMemoryStorage.test_workflow_blueprint_model'
tp59
sI51
(S'/home/dan/dev/cloudify/cloudify-plugins-common/cloudify/tests/test_local_workflows.py'
g9
S'LocalWorkflowTestInMemoryStorage.test_workflow_bootstrap_context'
tp60
sI52
(S'/home/dan/dev/cloudify/cloudify-plugins-common/cloudify/tests/test_local_workflows.py'
g9
S'LocalWorkflowTestInMemoryStorage.test_workflow_ctx_properties'
tp61
sI53
(S'/home/dan/dev/cloudify/cloudify-plugins-common/cloudify/tests/test_local_workflows.py'
g9
S'LocalWorkflowTestInMemoryStorage.test_workflow_graph_mode'
tp62
sI54
(S'/home/dan/dev/cloudify/cloudify-plugins-common/cloudify/tests/test_local_workflows.py'
g9
S'LocalWorkflowTestInMemoryStorage.test_workflow_set_get_node_instance_state'
tp63
ss.